; Function Attrs: nounwind uwtable
define ptr @Ssw_LatchCorrespondence(ptr noundef %0, ptr noundef %1) local_unnamed_addr #2 {
  %3 = alloca %struct.Ssw_Pars_t_, align 8
  %4 = icmp eq ptr %1, null
  br i1 %4, label %5, label %20

5:                                                ; preds = %2
  %6 = getelementptr inbounds nuw i8, ptr %3, i64 12
  call void @llvm.memset.p0.i64(ptr noundef nonnull align 8 dereferenceable(176) %3, i8 0, i64 176, i1 false)
  store i32 1, ptr %6, align 4
  %7 = getelementptr inbounds nuw i8, ptr %3, i64 16
  store i32 2, ptr %7, align 8
  %8 = getelementptr inbounds nuw i8, ptr %3, i64 32
  %9 = getelementptr inbounds nuw i8, ptr %3, i64 36
  store i32 5000000, ptr %9, align 4
  %10 = getelementptr inbounds nuw i8, ptr %3, i64 40
  store i32 100, ptr %10, align 8
  %11 = getelementptr inbounds nuw i8, ptr %3, i64 44
  store i32 -1, ptr %11, align 4
  %12 = getelementptr inbounds nuw i8, ptr %3, i64 52
  store i32 1000, ptr %12, align 4
  %13 = getelementptr inbounds nuw i8, ptr %3, i64 56
  store i32 -1, ptr %13, align 8
  %14 = getelementptr inbounds nuw i8, ptr %3, i64 68
  %15 = getelementptr inbounds nuw i8, ptr %3, i64 132
  %16 = getelementptr inbounds nuw i8, ptr %3, i64 136
  call void @llvm.memset.p0.i64(ptr noundef nonnull align 4 dereferenceable(28) %14, i8 0, i64 28, i1 false)
  store i32 1000, ptr %16, align 8
  %17 = getelementptr inbounds nuw i8, ptr %3, i64 140
  store i32 50, ptr %17, align 4
  %18 = getelementptr inbounds nuw i8, ptr %3, i64 144
  store i32 5000, ptr %18, align 8
  %19 = getelementptr inbounds nuw i8, ptr %3, i64 148
  store i32 250, ptr %19, align 4
  store i32 1, ptr %15, align 4
  store i32 10000, ptr %8, align 8
  br label %20

20:                                               ; preds = %5, %2
  %.0 = phi ptr [ %3, %5 ], [ %1, %2 ]
  %21 = call ptr @Ssw_SignalCorrespondence(ptr noundef %0, ptr noundef nonnull %.0)
  ret ptr %21
}